; Function Attrs: nounwind uwtable
define hidden ptr @zend_accel_hash_find_entry(ptr nocapture noundef readonly %0, ptr noundef %1) local_unnamed_addr #2 {
  %3 = getelementptr inbounds i8, ptr %1, i64 8
  %4 = load i64, ptr %3, align 8
  %.not = icmp eq i64 %4, 0
  br i1 %.not, label %5, label %7

5:                                                ; preds = %2
  %6 = tail call i64 @zend_string_hash_func(ptr noundef nonnull %1) #5
  br label %7

7:                                                ; preds = %2, %5
  %8 = phi i64 [ %6, %5 ], [ %4, %2 ]
  %9 = load i64, ptr getelementptr inbounds (%struct._zend_accel_globals, ptr @accel_globals, i64 0, i32 18), align 8
  %10 = xor i64 %9, %8
  %11 = getelementptr inbounds i8, ptr %0, i64 20
  %12 = load i32, ptr %11, align 4
  %13 = zext i32 %12 to i64
  %14 = urem i64 %10, %13
  %15 = load ptr, ptr %0, align 8
  %16 = getelementptr inbounds ptr, ptr %15, i64 %14
  %.03441 = load ptr, ptr %16, align 8
  %.not3842 = icmp eq ptr %.03441, null
  br i1 %.not3842, label %.loopexit, label %.lr.ph

.lr.ph:                                           ; preds = %7
  %17 = getelementptr inbounds i8, ptr %1, i64 16
  br label %18

18:                                               ; preds = %.lr.ph, %.critedge2
  %.03443 = phi ptr [ %.03441, %.lr.ph ], [ %.034, %.critedge2 ]
  %19 = load i64, ptr %.03443, align 8
  %20 = icmp eq i64 %19, %10
  br i1 %20, label %21, label %.critedge2

21:                                               ; preds = %18
  %22 = getelementptr inbounds i8, ptr %.03443, i64 8
  %23 = load ptr, ptr %22, align 8
  %24 = icmp eq ptr %23, %1
  br i1 %24, label %.critedge, label %25

25:                                               ; preds = %21
  %26 = getelementptr inbounds i8, ptr %23, i64 16
  %27 = load i64, ptr %26, align 8
  %28 = load i64, ptr %17, align 8
  %29 = icmp eq i64 %27, %28
  br i1 %29, label %30, label %.critedge2

30:                                               ; preds = %25
  %31 = tail call zeroext i1 @zend_string_equal_val(ptr noundef nonnull %23, ptr noundef nonnull %1) #5
  br i1 %31, label %.critedge, label %.critedge2

.critedge:                                        ; preds = %21, %30
  %32 = getelementptr inbounds i8, ptr %.03443, i64 32
  %33 = load i8, ptr %32, align 8
  %34 = and i8 %33, 1
  %.not39 = icmp eq i8 %34, 0
  br i1 %.not39, label %.loopexit, label %35

35:                                               ; preds = %.critedge
  %36 = getelementptr inbounds i8, ptr %.03443, i64 24
  %37 = load ptr, ptr %36, align 8
  br label %.loopexit

.critedge2:                                       ; preds = %25, %30, %18
  %38 = getelementptr inbounds i8, ptr %.03443, i64 16
  %.034 = load ptr, ptr %38, align 8
  %.not38 = icmp eq ptr %.034, null
  br i1 %.not38, label %.loopexit, label %18

.loopexit:                                        ; preds = %.critedge2, %7, %.critedge, %35
  %.0 = phi ptr [ %37, %35 ], [ %.03443, %.critedge ], [ null, %7 ], [ null, %.critedge2 ]
  ret ptr %.0
}